; Function Attrs: mustprogress nofree norecurse nosync nounwind willreturn memory(read, inaccessiblemem: none) uwtable
define noundef i64 @_ZNK32pxrInternal_v0_24__pxrReserved__18PcpPrimIndex_Graph19GetNodeIndexForNodeERKNS_10PcpNodeRefE(ptr noundef nonnull readonly align 8 dereferenceable(57) %0, ptr nocapture noundef nonnull readonly align 8 dereferenceable(16) %1) local_unnamed_addr #9 align 2 {
  %3 = load ptr, ptr %1, align 8
  %4 = icmp eq ptr %3, %0
  br i1 %4, label %5, label %8

5:                                                ; preds = %2
  %6 = getelementptr inbounds nuw i8, ptr %1, i64 8
  %7 = load i64, ptr %6, align 8
  br label %18

8:                                                ; preds = %2
  %9 = getelementptr inbounds nuw i8, ptr %0, i64 16
  %10 = load ptr, ptr %9, align 8
  %11 = getelementptr inbounds nuw i8, ptr %10, i64 8
  %12 = load ptr, ptr %11, align 8
  %13 = load ptr, ptr %10, align 8
  %14 = ptrtoint ptr %12 to i64
  %15 = ptrtoint ptr %13 to i64
  %16 = sub i64 %14, %15
  %17 = sdiv exact i64 %16, 48
  br label %18

18:                                               ; preds = %8, %5
  %19 = phi i64 [ %7, %5 ], [ %17, %8 ]
  ret i64 %19
}